target datalayout = "e-m:e-p270:32:32-p271:32:32-p272:64:64-i64:64-i128:128-f80:128-n8:16:32:64-S128"
target triple = "x86_64-pc-linux-gnu"

%struct.CType = type { i32, i32, i16, i16, %struct.GCRef }
%struct.GCRef = type { i64 }
%struct.CTState = type { ptr, i32, i32, ptr, ptr, ptr, %struct.CCallback, [128 x i16] }
%struct.CCallback = type { [8 x %union.FPRCBArg], [8 x i64], ptr, ptr, ptr, i32, i32, i32 }
%union.FPRCBArg = type { double }
%struct.GCstr = type { %struct.GCRef, i8, i8, i8, i8, i32, i32, i32 }
%struct.global_State = type { ptr, ptr, %struct.GCState, %struct.GCstr, i8, i8, i8, i8, %struct.StrInternState, i32, %struct.GCRef, %struct.SBuf, %union.TValue, %union.TValue, %struct.Node, %union.TValue, %struct.GCupval, i32, i32, ptr, ptr, ptr, i32, i32, %struct.GCRef, %struct.MRef, %struct.MRef, %struct.PRNGState, [39 x %struct.GCRef] }
%struct.GCState = type { i64, i64, i8, i8, i8, i8, i32, %struct.GCRef, %struct.MRef, %struct.GCRef, %struct.GCRef, %struct.GCRef, %struct.GCRef, i64, i64, i32, i32, %struct.MRef }
%struct.StrInternState = type { ptr, i32, i32, i32, i8, i8, i8, i8, i64 }
%struct.SBuf = type { ptr, ptr, ptr, %struct.MRef }
%struct.Node = type { %union.TValue, %union.TValue, %struct.MRef }
%union.TValue = type { i64 }
%struct.GCupval = type { %struct.GCRef, i8, i8, i8, i8, %union.anon, %struct.MRef, i32 }
%union.anon = type { %struct.anon.1 }
%struct.anon.1 = type { %struct.GCRef, %struct.GCRef }
%struct.MRef = type { i64 }
%struct.PRNGState = type { [4 x i64] }
%struct.GCcdata = type { %struct.GCRef, i8, i8, i16 }

@.str = private unnamed_addr constant [24 x i8] c"store to dead GC object\00", align 1

; Function Attrs: alwaysinline nounwind uwtable
define internal void @checklivetv(ptr noundef %0, ptr noundef %1, ptr noundef %2) #2 {
  %4 = alloca ptr, align 8
  %5 = alloca ptr, align 8
  %6 = alloca ptr, align 8
  store ptr %0, ptr %4, align 8, !tbaa !48
  store ptr %1, ptr %5, align 8, !tbaa !43
  store ptr %2, ptr %6, align 8, !tbaa !21
  ret void
}

; Function Attrs: alwaysinline nounwind uwtable
define internal void @setgcVraw(ptr noundef %0, ptr noundef %1, i32 noundef %2) #2 {
  %4 = alloca ptr, align 8
  %5 = alloca ptr, align 8
  %6 = alloca i32, align 4
  store ptr %0, ptr %4, align 8, !tbaa !43
  store ptr %1, ptr %5, align 8, !tbaa !82
  store i32 %2, ptr %6, align 4, !tbaa !11
  %7 = load ptr, ptr %5, align 8, !tbaa !82
  %8 = ptrtoint ptr %7 to i64
  %9 = load i32, ptr %6, align 4, !tbaa !11
  %10 = zext i32 %9 to i64
  %11 = shl i64 %10, 47
  %12 = or i64 %8, %11
  %13 = load ptr, ptr %4, align 8, !tbaa !43
  %14 = getelementptr inbounds nuw %struct.GCRef, ptr %13, i32 0, i32 0
  store i64 %12, ptr %14, align 8, !tbaa !23
  ret void
}

; Function Attrs: alwaysinline nounwind uwtable
define internal void @setgcV(ptr noundef %0, ptr noundef %1, ptr noundef %2, i32 noundef %3) #2 {
  %5 = alloca ptr, align 8
  %6 = alloca ptr, align 8
  %7 = alloca ptr, align 8
  %8 = alloca i32, align 4
  store ptr %0, ptr %5, align 8, !tbaa !48
  store ptr %1, ptr %6, align 8, !tbaa !43
  store ptr %2, ptr %7, align 8, !tbaa !82
  store i32 %3, ptr %8, align 4, !tbaa !11
  %9 = load ptr, ptr %6, align 8, !tbaa !43
  %10 = load ptr, ptr %7, align 8, !tbaa !82
  %11 = load i32, ptr %8, align 4, !tbaa !11
  call void @setgcVraw(ptr noundef %9, ptr noundef %10, i32 noundef %11)
  %12 = load ptr, ptr %5, align 8, !tbaa !48
  %13 = load ptr, ptr %6, align 8, !tbaa !43
  call void @checklivetv(ptr noundef %12, ptr noundef %13, ptr noundef @.str)
  ret void
}

; Function Attrs: alwaysinline nounwind uwtable
define internal i32 @ctype_check(ptr noundef %0, i32 noundef %1) #2 {
  %3 = alloca ptr, align 8
  %4 = alloca i32, align 4
  store ptr %0, ptr %3, align 8, !tbaa !4
  store i32 %1, ptr %4, align 4, !tbaa !11
  %5 = load i32, ptr %4, align 4, !tbaa !11
  ret i32 %5
}

; Function Attrs: alwaysinline nounwind uwtable
define internal ptr @lj_cdata_new(ptr noundef %0, i32 noundef %1, i32 noundef %2) #2 {
  %4 = alloca ptr, align 8
  %5 = alloca i32, align 4
  %6 = alloca i32, align 4
  %7 = alloca ptr, align 8
  store ptr %0, ptr %4, align 8, !tbaa !4
  store i32 %1, ptr %5, align 4, !tbaa !11
  store i32 %2, ptr %6, align 4, !tbaa !11
  call void @llvm.lifetime.start.p0(i64 8, ptr %7) #9
  %8 = load ptr, ptr %4, align 8, !tbaa !4
  %9 = getelementptr inbounds nuw %struct.CTState, ptr %8, i32 0, i32 3
  %10 = load ptr, ptr %9, align 8, !tbaa !34
  %11 = load i32, ptr %6, align 4, !tbaa !11
  %12 = zext i32 %11 to i64
  %13 = add i64 16, %12
  %14 = call ptr @lj_mem_newgco(ptr noundef %10, i64 noundef %13)
  store ptr %14, ptr %7, align 8, !tbaa !46
  %15 = load ptr, ptr %7, align 8, !tbaa !46
  %16 = getelementptr inbounds nuw %struct.GCcdata, ptr %15, i32 0, i32 2
  store i8 10, ptr %16, align 1, !tbaa !49
  %17 = load ptr, ptr %4, align 8, !tbaa !4
  %18 = load i32, ptr %5, align 4, !tbaa !11
  %19 = call i32 @ctype_check(ptr noundef %17, i32 noundef %18)
  %20 = trunc i32 %19 to i16
  %21 = load ptr, ptr %7, align 8, !tbaa !46
  %22 = getelementptr inbounds nuw %struct.GCcdata, ptr %21, i32 0, i32 3
  store i16 %20, ptr %22, align 2, !tbaa !51
  %23 = load ptr, ptr %7, align 8, !tbaa !46
  call void @llvm.lifetime.end.p0(i64 8, ptr %7) #9
  ret ptr %23
}

; Function Attrs: alwaysinline nounwind uwtable
define internal void @setcdataV(ptr noundef %0, ptr noundef %1, ptr noundef %2) #2 {
  %4 = alloca ptr, align 8
  %5 = alloca ptr, align 8
  %6 = alloca ptr, align 8
  store ptr %0, ptr %4, align 8, !tbaa !48
  store ptr %1, ptr %5, align 8, !tbaa !43
  store ptr %2, ptr %6, align 8, !tbaa !46
  %7 = load ptr, ptr %4, align 8, !tbaa !48
  %8 = load ptr, ptr %5, align 8, !tbaa !43
  %9 = load ptr, ptr %6, align 8, !tbaa !46
  call void @setgcV(ptr noundef %7, ptr noundef %8, ptr noundef %9, i32 noundef -11)
  ret void
}

; Function Attrs: alwaysinline nounwind uwtable
define internal ptr @ctype_get(ptr noundef %0, i32 noundef %1) #2 {
  %3 = alloca ptr, align 8
  %4 = alloca i32, align 4
  store ptr %0, ptr %3, align 8, !tbaa !4
  store i32 %1, ptr %4, align 4, !tbaa !11
  %5 = load ptr, ptr %3, align 8, !tbaa !4
  %6 = getelementptr inbounds nuw %struct.CTState, ptr %5, i32 0, i32 0
  %7 = load ptr, ptr %6, align 8, !tbaa !42
  %8 = load ptr, ptr %3, align 8, !tbaa !4
  %9 = load i32, ptr %4, align 4, !tbaa !11
  %10 = call i32 @ctype_check(ptr noundef %8, i32 noundef %9)
  %11 = zext i32 %10 to i64
  %12 = getelementptr inbounds nuw %struct.CType, ptr %7, i64 %11
  ret ptr %12
}

; Function Attrs: nounwind uwtable
define hidden i32 @lj_cconv_tv_ct(ptr noundef %0, ptr noundef %1, i32 noundef %2, ptr noundef %3, ptr noundef %4) #0 {
  %6 = alloca i32, align 4
  %7 = alloca ptr, align 8
  %8 = alloca ptr, align 8
  %9 = alloca i32, align 4
  %10 = alloca ptr, align 8
  %11 = alloca ptr, align 8
  %12 = alloca i32, align 4
  %13 = alloca i32, align 4
  %14 = alloca i32, align 4
  %15 = alloca ptr, align 8
  %16 = alloca i32, align 4
  store ptr %0, ptr %7, align 8, !tbaa !4
  store ptr %1, ptr %8, align 8, !tbaa !9
  store i32 %2, ptr %9, align 4, !tbaa !11
  store ptr %3, ptr %10, align 8, !tbaa !43
  store ptr %4, ptr %11, align 8, !tbaa !21
  call void @llvm.lifetime.start.p0(i64 4, ptr %12) #9
  %17 = load ptr, ptr %8, align 8, !tbaa !9
  %18 = getelementptr inbounds nuw %struct.CType, ptr %17, i32 0, i32 0
  %19 = load i32, ptr %18, align 8, !tbaa !13
  store i32 %19, ptr %12, align 4, !tbaa !11
  %20 = load i32, ptr %12, align 4, !tbaa !11
  %21 = lshr i32 %20, 28
  %22 = icmp eq i32 %21, 0
  br i1 %22, label %23, label %78

23:                                               ; preds = %5
  %24 = load i32, ptr %12, align 4, !tbaa !11
  %25 = and i32 %24, -134217728
  %26 = icmp eq i32 %25, 134217728
  br i1 %26, label %44, label %27

27:                                               ; preds = %23
  %28 = load i32, ptr %12, align 4, !tbaa !11
  %29 = and i32 %28, -67108864
  %30 = icmp eq i32 %29, 0
  br i1 %30, label %31, label %37

31:                                               ; preds = %27
  %32 = load ptr, ptr %8, align 8, !tbaa !9
  %33 = getelementptr inbounds nuw %struct.CType, ptr %32, i32 0, i32 1
  %34 = load i32, ptr %33, align 4, !tbaa !18
  %35 = icmp ugt i32 %34, 4
  br i1 %35, label %36, label %37

36:                                               ; preds = %31
  br label %96

37:                                               ; preds = %31, %27
  %38 = load ptr, ptr %7, align 8, !tbaa !4
  %39 = load ptr, ptr %7, align 8, !tbaa !4
  %40 = call ptr @ctype_get(ptr noundef %39, i32 noundef 14)
  %41 = load ptr, ptr %8, align 8, !tbaa !9
  %42 = load ptr, ptr %10, align 8, !tbaa !43
  %43 = load ptr, ptr %11, align 8, !tbaa !21
  call void @lj_cconv_ct_ct(ptr noundef %38, ptr noundef %40, ptr noundef %41, ptr noundef %42, ptr noundef %43, i32 noundef 0)
  br label %77

44:                                               ; preds = %23
  call void @llvm.lifetime.start.p0(i64 4, ptr %13) #9
  %45 = load ptr, ptr %8, align 8, !tbaa !9
  %46 = getelementptr inbounds nuw %struct.CType, ptr %45, i32 0, i32 1
  %47 = load i32, ptr %46, align 4, !tbaa !18
  %48 = icmp eq i32 %47, 1
  br i1 %48, label %49, label %55

49:                                               ; preds = %44
  %50 = load ptr, ptr %11, align 8, !tbaa !21
  %51 = load i8, ptr %50, align 1, !tbaa !23
  %52 = zext i8 %51 to i32
  %53 = icmp ne i32 %52, 0
  %54 = zext i1 %53 to i32
  br label %60

55:                                               ; preds = %44
  %56 = load ptr, ptr %11, align 8, !tbaa !21
  %57 = load i32, ptr %56, align 4, !tbaa !11
  %58 = icmp ne i32 %57, 0
  %59 = zext i1 %58 to i32
  br label %60

60:                                               ; preds = %55, %49
  %61 = phi i32 [ %54, %49 ], [ %59, %55 ]
  store i32 %61, ptr %13, align 4, !tbaa !11
  %62 = load i32, ptr %13, align 4, !tbaa !11
  %63 = add i32 %62, 1
  %64 = zext i32 %63 to i64
  %65 = shl i64 %64, 47
  %66 = xor i64 %65, -1
  %67 = load ptr, ptr %10, align 8, !tbaa !43
  store i64 %66, ptr %67, align 8, !tbaa !23
  %68 = load i32, ptr %13, align 4, !tbaa !11
  %69 = add i32 %68, 1
  %70 = zext i32 %69 to i64
  %71 = shl i64 %70, 47
  %72 = xor i64 %71, -1
  %73 = load ptr, ptr %7, align 8, !tbaa !4
  %74 = getelementptr inbounds nuw %struct.CTState, ptr %73, i32 0, i32 4
  %75 = load ptr, ptr %74, align 8, !tbaa !45
  %76 = getelementptr inbounds nuw %struct.global_State, ptr %75, i32 0, i32 13
  store i64 %72, ptr %76, align 8, !tbaa !23
  call void @llvm.lifetime.end.p0(i64 4, ptr %13) #9
  br label %77

77:                                               ; preds = %60, %37
  store i32 0, ptr %6, align 4
  store i32 1, ptr %14, align 4
  br label %122

78:                                               ; preds = %5
  %79 = load i32, ptr %12, align 4, !tbaa !11
  %80 = and i32 %79, -67108864
  %81 = icmp eq i32 %80, 805306368
  br i1 %81, label %86, label %82

82:                                               ; preds = %78
  %83 = load i32, ptr %12, align 4, !tbaa !11
  %84 = lshr i32 %83, 28
  %85 = icmp eq i32 %84, 1
  br i1 %85, label %86, label %95

86:                                               ; preds = %82, %78
  %87 = load ptr, ptr %7, align 8, !tbaa !4
  %88 = getelementptr inbounds nuw %struct.CTState, ptr %87, i32 0, i32 3
  %89 = load ptr, ptr %88, align 8, !tbaa !34
  %90 = load ptr, ptr %10, align 8, !tbaa !43
  %91 = load ptr, ptr %7, align 8, !tbaa !4
  %92 = load ptr, ptr %11, align 8, !tbaa !21
  %93 = load i32, ptr %9, align 4, !tbaa !11
  %94 = call ptr @lj_cdata_newref(ptr noundef %91, ptr noundef %92, i32 noundef %93)
  call void @setcdataV(ptr noundef %89, ptr noundef %90, ptr noundef %94)
  store i32 1, ptr %6, align 4
  store i32 1, ptr %14, align 4
  br label %122

95:                                               ; preds = %82
  br label %96

96:                                               ; preds = %95, %36
  %97 = load ptr, ptr %8, align 8, !tbaa !9
  %98 = getelementptr inbounds nuw %struct.CType, ptr %97, i32 0, i32 1
  %99 = load i32, ptr %98, align 4, !tbaa !18
  store i32 %99, ptr %16, align 4, !tbaa !11
  %100 = load ptr, ptr %7, align 8, !tbaa !4
  %101 = load ptr, ptr %8, align 8, !tbaa !9
  %102 = load ptr, ptr %7, align 8, !tbaa !4
  %103 = getelementptr inbounds nuw %struct.CTState, ptr %102, i32 0, i32 0
  %104 = load ptr, ptr %103, align 8, !tbaa !42
  %105 = ptrtoint ptr %101 to i64
  %106 = ptrtoint ptr %104 to i64
  %107 = sub i64 %105, %106
  %108 = sdiv exact i64 %107, 24
  %109 = trunc i64 %108 to i32
  %110 = load i32, ptr %16, align 4, !tbaa !11
  %111 = call ptr @lj_cdata_new(ptr noundef %100, i32 noundef %109, i32 noundef %110)
  store ptr %111, ptr %15, align 8, !tbaa !46
  %112 = load ptr, ptr %7, align 8, !tbaa !4
  %113 = getelementptr inbounds nuw %struct.CTState, ptr %112, i32 0, i32 3
  %114 = load ptr, ptr %113, align 8, !tbaa !34
  %115 = load ptr, ptr %10, align 8, !tbaa !43
  %116 = load ptr, ptr %15, align 8, !tbaa !46
  call void @setcdataV(ptr noundef %114, ptr noundef %115, ptr noundef %116)
  %117 = load ptr, ptr %15, align 8, !tbaa !46
  %118 = getelementptr inbounds %struct.GCcdata, ptr %117, i64 1
  %119 = load ptr, ptr %11, align 8, !tbaa !21
  %120 = load i32, ptr %16, align 4, !tbaa !11
  %121 = zext i32 %120 to i64
  call void @llvm.memcpy.p0.p0.i64(ptr align 1 %118, ptr align 1 %119, i64 %121, i1 false)
  store i32 1, ptr %6, align 4
  store i32 1, ptr %14, align 4
  br label %122

122:                                              ; preds = %96, %86, %77
  call void @llvm.lifetime.end.p0(i64 4, ptr %12) #9
  %123 = load i32, ptr %6, align 4
  ret i32 %123
}