; Function Attrs: nounwind uwtable
define hidden range(i32 0, 2) i32 @lj_cconv_tv_ct(ptr noundef %0, ptr noundef %1, i32 noundef %2, ptr noundef %3, ptr noundef %4) local_unnamed_addr #2 {
  %6 = load i32, ptr %1, align 8, !tbaa !17
  %7 = icmp ult i32 %6, 268435456
  br i1 %7, label %8, label %33

8:                                                ; preds = %5
  %.not = icmp samesign ult i32 %6, 134217728
  br i1 %.not, label %9, label %18

9:                                                ; preds = %8
  %10 = icmp samesign ult i32 %6, 67108864
  br i1 %10, label %11, label %15

11:                                               ; preds = %9
  %12 = getelementptr inbounds nuw i8, ptr %1, i64 4
  %13 = load i32, ptr %12, align 4, !tbaa !22
  %14 = icmp ugt i32 %13, 4
  br i1 %14, label %41, label %15

15:                                               ; preds = %11, %9
  %16 = load ptr, ptr %0, align 8, !tbaa !4
  %17 = getelementptr inbounds nuw i8, ptr %16, i64 336
  tail call void @lj_cconv_ct_ct(ptr noundef nonnull %0, ptr noundef nonnull %17, ptr noundef nonnull %1, ptr noundef %3, ptr noundef %4, i32 noundef 0)
  br label %59

18:                                               ; preds = %8
  %19 = getelementptr inbounds nuw i8, ptr %1, i64 4
  %20 = load i32, ptr %19, align 4, !tbaa !22
  %21 = icmp eq i32 %20, 1
  br i1 %21, label %22, label %25

22:                                               ; preds = %18
  %23 = load i8, ptr %4, align 1, !tbaa !23
  %24 = icmp ne i8 %23, 0
  br label %28

25:                                               ; preds = %18
  %26 = load i32, ptr %4, align 4, !tbaa !24
  %27 = icmp ne i32 %26, 0
  br label %28

28:                                               ; preds = %25, %22
  %.in = phi i1 [ %24, %22 ], [ %27, %25 ]
  %29 = select i1 %.in, i64 -281474976710657, i64 -140737488355329
  store i64 %29, ptr %3, align 8, !tbaa !23
  %30 = getelementptr inbounds nuw i8, ptr %0, i64 24
  %31 = load ptr, ptr %30, align 8, !tbaa !38
  %32 = getelementptr inbounds nuw i8, ptr %31, i64 240
  store i64 %29, ptr %32, align 8, !tbaa !23
  br label %59

33:                                               ; preds = %5
  %34 = and i32 %6, -67108864
  %35 = icmp eq i32 %34, 805306368
  %.mask = and i32 %6, -268435456
  %36 = icmp eq i32 %.mask, 268435456
  %or.cond = or i1 %35, %36
  br i1 %or.cond, label %37, label %._crit_edge

._crit_edge:                                      ; preds = %33
  %.phi.trans.insert = getelementptr inbounds nuw i8, ptr %1, i64 4
  %.pre = load i32, ptr %.phi.trans.insert, align 4, !tbaa !22
  br label %41

37:                                               ; preds = %33
  %38 = tail call ptr @lj_cdata_newref(ptr noundef %0, ptr noundef %4, i32 noundef %2) #9
  %39 = ptrtoint ptr %38 to i64
  %40 = or i64 %39, -1548112371908608
  store i64 %40, ptr %3, align 8, !tbaa !23
  br label %59

41:                                               ; preds = %._crit_edge, %11
  %42 = phi i32 [ %.pre, %._crit_edge ], [ %13, %11 ]
  %43 = load ptr, ptr %0, align 8, !tbaa !4
  %44 = ptrtoint ptr %1 to i64
  %45 = ptrtoint ptr %43 to i64
  %46 = sub i64 %44, %45
  %47 = sdiv exact i64 %46, 24
  %48 = getelementptr inbounds nuw i8, ptr %0, i64 16
  %49 = load ptr, ptr %48, align 8, !tbaa !35
  %50 = zext i32 %42 to i64
  %51 = add nuw nsw i64 %50, 16
  %52 = tail call ptr @lj_mem_newgco(ptr noundef %49, i64 noundef %51) #9
  %53 = getelementptr inbounds nuw i8, ptr %52, i64 9
  store i8 10, ptr %53, align 1, !tbaa !39
  %54 = trunc i64 %47 to i16
  %55 = getelementptr inbounds nuw i8, ptr %52, i64 10
  store i16 %54, ptr %55, align 2, !tbaa !41
  %56 = ptrtoint ptr %52 to i64
  %57 = or i64 %56, -1548112371908608
  store i64 %57, ptr %3, align 8, !tbaa !23
  %58 = getelementptr inbounds nuw i8, ptr %52, i64 16
  tail call void @llvm.memcpy.p0.p0.i64(ptr nonnull align 1 %58, ptr align 1 %4, i64 %50, i1 false)
  br label %59

59:                                               ; preds = %15, %28, %41, %37
  %.0 = phi i32 [ 1, %41 ], [ 1, %37 ], [ 0, %28 ], [ 0, %15 ]
  ret i32 %.0
}